; Function Attrs: mustprogress nounwind uwtable
define dso_local void @_ZN11FactPointToD0Ev(ptr noundef nonnull align 8 dereferenceable(48) initializes((0, 8)) %0) unnamed_addr #4 align 2 personality ptr @__gxx_personality_v0 {
  store ptr getelementptr inbounds nuw inrange(-16, 152) (i8, ptr @_ZTV11FactPointTo, i64 16), ptr %0, align 8, !tbaa !35
  %2 = getelementptr inbounds nuw i8, ptr %0, i64 24
  %3 = load ptr, ptr %2, align 8, !tbaa !4
  %.not.i.i.i.i = icmp eq ptr %3, null
  br i1 %.not.i.i.i.i, label %_ZN11FactPointToD2Ev.exit, label %4

4:                                                ; preds = %1
  %5 = getelementptr inbounds nuw i8, ptr %0, i64 40
  %6 = load ptr, ptr %5, align 8, !tbaa !10
  %7 = ptrtoint ptr %6 to i64
  %8 = ptrtoint ptr %3 to i64
  %9 = sub i64 %7, %8
  tail call void @_ZdlPvm(ptr noundef nonnull %3, i64 noundef %9) #21
  br label %_ZN11FactPointToD2Ev.exit

_ZN11FactPointToD2Ev.exit:                        ; preds = %1, %4
  tail call void @_ZN4FactD2Ev(ptr noundef nonnull align 8 dereferenceable(48) %0) #22
  tail call void @_ZdlPvm(ptr noundef nonnull %0, i64 noundef 48) #21
  ret void
}